target datalayout = "e-m:e-p270:32:32-p271:32:32-p272:64:64-i64:64-i128:128-f80:128-n8:16:32:64-S128"
target triple = "x86_64-unknown-linux-gnu"

%"class.EA::StdC::Callback" = type { ptr, i64, i64, ptr, ptr, ptr, i32, %"class.EA::Thread::AtomicInt", i8, i8, i64, i64 }
%"class.EA::Thread::AtomicInt" = type { %"struct.std::atomic" }
%"struct.std::atomic" = type { %"struct.std::__atomic_base" }
%"struct.std::__atomic_base" = type { i32 }

; Function Attrs: mustprogress nounwind uwtable
define dso_local void @_ZNK2EA4StdC8Callback15GetFunctionInfoERPFvPS1_PvmmERS3_(ptr noundef nonnull align 8 dereferenceable(80) %this, ptr noundef nonnull align 8 dereferenceable(8) %pCallbackFunction, ptr noundef nonnull align 8 dereferenceable(8) %pCallbackArgument) #1 align 2 {
entry:
  %this.addr = alloca ptr, align 8
  %pCallbackFunction.addr = alloca ptr, align 8
  %pCallbackArgument.addr = alloca ptr, align 8
  store ptr %this, ptr %this.addr, align 8
  store ptr %pCallbackFunction, ptr %pCallbackFunction.addr, align 8
  store ptr %pCallbackArgument, ptr %pCallbackArgument.addr, align 8
  %this1 = load ptr, ptr %this.addr, align 8
  %mpFunction = getelementptr inbounds %"class.EA::StdC::Callback", ptr %this1, i32 0, i32 4
  %0 = load ptr, ptr %mpFunction, align 8
  %1 = load ptr, ptr %pCallbackFunction.addr, align 8
  store ptr %0, ptr %1, align 8
  %mpFunctionArg = getelementptr inbounds %"class.EA::StdC::Callback", ptr %this1, i32 0, i32 5
  %2 = load ptr, ptr %mpFunctionArg, align 8
  %3 = load ptr, ptr %pCallbackArgument.addr, align 8
  store ptr %2, ptr %3, align 8
  ret void
}