; Function Attrs: mustprogress nofree norecurse nosync nounwind willreturn memory(argmem: readwrite) uwtable
define dso_local void @_ZNK2EA4StdC8Callback15GetFunctionInfoERPFvPS1_PvmmERS3_(ptr nocapture noundef nonnull readonly align 8 dereferenceable(80) %this, ptr nocapture noundef nonnull writeonly align 8 dereferenceable(8) %pCallbackFunction, ptr nocapture noundef nonnull writeonly align 8 dereferenceable(8) %pCallbackArgument) local_unnamed_addr #5 align 2 {
entry:
  %mpFunction = getelementptr inbounds i8, ptr %this, i64 32
  %0 = load ptr, ptr %mpFunction, align 8
  store ptr %0, ptr %pCallbackFunction, align 8
  %mpFunctionArg = getelementptr inbounds i8, ptr %this, i64 40
  %1 = load ptr, ptr %mpFunctionArg, align 8
  store ptr %1, ptr %pCallbackArgument, align 8
  ret void
}